; Function Attrs: nofree norecurse nosync nounwind memory(argmem: read) uwtable
define hidden noundef zeroext i1 @lexbor_str_data_ncmp_end(ptr nocapture noundef readonly %0, ptr nocapture noundef readonly %1, i64 noundef %2) local_unnamed_addr #8 {
  br label %4

4:                                                ; preds = %5, %3
  %.0 = phi i64 [ %2, %3 ], [ %6, %5 ]
  %.not = icmp eq i64 %.0, 0
  br i1 %.not, label %11, label %5

5:                                                ; preds = %4
  %6 = add i64 %.0, -1
  %7 = getelementptr inbounds i8, ptr %0, i64 %6
  %8 = load i8, ptr %7, align 1
  %9 = getelementptr inbounds i8, ptr %1, i64 %6
  %10 = load i8, ptr %9, align 1
  %.not7 = icmp eq i8 %8, %10
  br i1 %.not7, label %4, label %11

11:                                               ; preds = %4, %5
  ret i1 %.not
}